; Function Attrs: mustprogress nounwind uwtable
define hidden noundef ptr @_ZN7AbsNode8IdentityEP8PhaseGVN(ptr noundef nonnull align 8 dereferenceable(52) %0, ptr nocapture noundef readonly %1) unnamed_addr #0 align 2 {
  %3 = getelementptr inbounds i8, ptr %0, i64 8
  %4 = load ptr, ptr %3, align 8
  %5 = getelementptr inbounds i8, ptr %4, i64 8
  %6 = load ptr, ptr %5, align 8
  %7 = getelementptr inbounds i8, ptr %1, i64 40
  %8 = load ptr, ptr %7, align 8
  %9 = getelementptr inbounds i8, ptr %6, i64 40
  %10 = load i32, ptr %9, align 8
  %11 = getelementptr inbounds i8, ptr %8, i64 16
  %12 = load ptr, ptr %11, align 8
  %13 = zext i32 %10 to i64
  %14 = getelementptr inbounds ptr, ptr %12, i64 %13
  %15 = load ptr, ptr %14, align 8
  %16 = load ptr, ptr @_ZN7TypeInt3POSE, align 8
  %17 = tail call noundef ptr @_ZNK4Type11meet_helperEPKS_b(ptr noundef nonnull align 8 dereferenceable(20) %15, ptr noundef %16, i1 noundef zeroext false) #10
  %18 = load ptr, ptr %16, align 8
  %19 = getelementptr inbounds i8, ptr %18, i64 128
  %20 = load ptr, ptr %19, align 8
  %21 = tail call noundef ptr %20(ptr noundef nonnull align 8 dereferenceable(20) %16) #10
  %22 = tail call noundef zeroext i1 @_ZN4Type6equalsEPKS_S1_(ptr noundef %17, ptr noundef %21) #10
  br i1 %22, label %46, label %23

23:                                               ; preds = %2
  %24 = load ptr, ptr %7, align 8
  %25 = load i32, ptr %9, align 8
  %26 = getelementptr inbounds i8, ptr %24, i64 16
  %27 = load ptr, ptr %26, align 8
  %28 = zext i32 %25 to i64
  %29 = getelementptr inbounds ptr, ptr %27, i64 %28
  %30 = load ptr, ptr %29, align 8
  %31 = load ptr, ptr @_ZN8TypeLong3POSE, align 8
  %32 = tail call noundef ptr @_ZNK4Type11meet_helperEPKS_b(ptr noundef nonnull align 8 dereferenceable(20) %30, ptr noundef %31, i1 noundef zeroext false) #10
  %33 = load ptr, ptr %31, align 8
  %34 = getelementptr inbounds i8, ptr %33, i64 128
  %35 = load ptr, ptr %34, align 8
  %36 = tail call noundef ptr %35(ptr noundef nonnull align 8 dereferenceable(20) %31) #10
  %37 = tail call noundef zeroext i1 @_ZN4Type6equalsEPKS_S1_(ptr noundef %32, ptr noundef %36) #10
  br i1 %37, label %46, label %38

38:                                               ; preds = %23
  %39 = load ptr, ptr %6, align 8
  %40 = load ptr, ptr %39, align 8
  %41 = tail call noundef i32 %40(ptr noundef nonnull align 8 dereferenceable(52) %6) #10
  %42 = load ptr, ptr %0, align 8
  %43 = load ptr, ptr %42, align 8
  %44 = tail call noundef i32 %43(ptr noundef nonnull align 8 dereferenceable(52) %0) #10
  %45 = icmp eq i32 %41, %44
  %. = select i1 %45, ptr %6, ptr %0
  br label %46

46:                                               ; preds = %38, %2, %23
  %.0 = phi ptr [ %6, %23 ], [ %6, %2 ], [ %., %38 ]
  ret ptr %.0
}